	.syntax unified
	.cpu cortex-m3
	.fpu softvfp
	.eabi_attribute 20, 1
	.eabi_attribute 21, 1
	.eabi_attribute 23, 3
	.eabi_attribute 24, 1
	.eabi_attribute 25, 1
	.eabi_attribute 26, 1
	.eabi_attribute 30, 6
	.eabi_attribute 34, 1
	.eabi_attribute 18, 4
	.thumb
	.syntax unified
	.file	"tft_Init.c"
	.text
.Ltext0:
	.cfi_sections	.debug_frame
	.section	.text.NVIC_DisableIRQ,"ax",%progbits
	.align	2
	.thumb
	.thumb_func
	.type	NVIC_DisableIRQ, %function
NVIC_DisableIRQ:
.LFB42:
	.file 1 "D:\\UTN\\Git\\TD_II\\TD_II\\workspace\\lpc_chip_175x_6x\\inc/core_cm3.h"
	.loc 1 1336 0
	.cfi_startproc
	@ args = 0, pretend = 0, frame = 8
	@ frame_needed = 1, uses_anonymous_args = 0
	@ link register save eliminated.
	push	{r7}
	.cfi_def_cfa_offset 4
	.cfi_offset 7, -4
	sub	sp, sp, #12
	.cfi_def_cfa_offset 16
	add	r7, sp, #0
	.cfi_def_cfa_register 7
	mov	r3, r0
	strb	r3, [r7, #7]
	.loc 1 1337 0
	ldr	r1, .L2
	ldrsb	r3, [r7, #7]
	lsrs	r3, r3, #5
	ldrb	r2, [r7, #7]	@ zero_extendqisi2
	and	r2, r2, #31
	movs	r0, #1
	lsl	r2, r0, r2
	adds	r3, r3, #32
	str	r2, [r1, r3, lsl #2]
	.loc 1 1338 0
	nop
	adds	r7, r7, #12
	.cfi_def_cfa_offset 4
	mov	sp, r7
	.cfi_def_cfa_register 13
	@ sp needed
	pop	{r7}
	.cfi_restore 7
	.cfi_def_cfa_offset 0
	bx	lr
.L3:
	.align	2
.L2:
	.word	-536813312
	.cfi_endproc
.LFE42:
	.size	NVIC_DisableIRQ, .-NVIC_DisableIRQ
	.section	.text.NVIC_ClearPendingIRQ,"ax",%progbits
	.align	2
	.thumb
	.thumb_func
	.type	NVIC_ClearPendingIRQ, %function
NVIC_ClearPendingIRQ:
.LFB45:
	.loc 1 1376 0
	.cfi_startproc
	@ args = 0, pretend = 0, frame = 8
	@ frame_needed = 1, uses_anonymous_args = 0
	@ link register save eliminated.
	push	{r7}
	.cfi_def_cfa_offset 4
	.cfi_offset 7, -4
	sub	sp, sp, #12
	.cfi_def_cfa_offset 16
	add	r7, sp, #0
	.cfi_def_cfa_register 7
	mov	r3, r0
	strb	r3, [r7, #7]
	.loc 1 1377 0
	ldr	r1, .L5
	ldrsb	r3, [r7, #7]
	lsrs	r3, r3, #5
	ldrb	r2, [r7, #7]	@ zero_extendqisi2
	and	r2, r2, #31
	movs	r0, #1
	lsl	r2, r0, r2
	adds	r3, r3, #96
	str	r2, [r1, r3, lsl #2]
	.loc 1 1378 0
	nop
	adds	r7, r7, #12
	.cfi_def_cfa_offset 4
	mov	sp, r7
	.cfi_def_cfa_register 13
	@ sp needed
	pop	{r7}
	.cfi_restore 7
	.cfi_def_cfa_offset 0
	bx	lr
.L6:
	.align	2
.L5:
	.word	-536813312
	.cfi_endproc
.LFE45:
	.size	NVIC_ClearPendingIRQ, .-NVIC_ClearPendingIRQ
	.section	.text.Chip_GPIO_SetPinState,"ax",%progbits
	.align	2
	.thumb
	.thumb_func
	.type	Chip_GPIO_SetPinState, %function
Chip_GPIO_SetPinState:
.LFB136:
	.file 2 "D:\\UTN\\Git\\TD_II\\TD_II\\workspace\\lpc_chip_175x_6x\\inc/gpio_17xx_40xx.h"
	.loc 2 89 0
	.cfi_startproc
	@ args = 0, pretend = 0, frame = 8
	@ frame_needed = 1, uses_anonymous_args = 0
	@ link register save eliminated.
	push	{r7}
	.cfi_def_cfa_offset 4
	.cfi_offset 7, -4
	sub	sp, sp, #12
	.cfi_def_cfa_offset 16
	add	r7, sp, #0
	.cfi_def_cfa_register 7
	str	r0, [r7, #4]
	mov	r0, r1
	mov	r1, r2
	mov	r2, r3
	mov	r3, r0
	strb	r3, [r7, #3]
	mov	r3, r1
	strb	r3, [r7, #2]
	mov	r3, r2
	strb	r3, [r7, #1]
	.loc 2 90 0
	ldrb	r3, [r7, #1]	@ zero_extendqisi2
	cmp	r3, #0
	beq	.L8
	.loc 2 91 0
	ldrb	r3, [r7, #3]	@ zero_extendqisi2
	lsls	r3, r3, #5
	ldr	r2, [r7, #4]
	add	r3, r3, r2
	ldrb	r2, [r7, #3]	@ zero_extendqisi2
	lsls	r2, r2, #5
	ldr	r1, [r7, #4]
	add	r2, r2, r1
	ldr	r1, [r2, #24]
	ldrb	r2, [r7, #2]	@ zero_extendqisi2
	movs	r0, #1
	lsl	r2, r0, r2
	orrs	r2, r2, r1
	str	r2, [r3, #24]
	.loc 2 96 0
	b	.L10
.L8:
	.loc 2 94 0
	ldrb	r3, [r7, #3]	@ zero_extendqisi2
	lsls	r3, r3, #5
	ldr	r2, [r7, #4]
	add	r3, r3, r2
	ldrb	r2, [r7, #3]	@ zero_extendqisi2
	lsls	r2, r2, #5
	ldr	r1, [r7, #4]
	add	r2, r2, r1
	ldr	r1, [r2, #28]
	ldrb	r2, [r7, #2]	@ zero_extendqisi2
	movs	r0, #1
	lsl	r2, r0, r2
	orrs	r2, r2, r1
	str	r2, [r3, #28]
.L10:
	.loc 2 96 0
	nop
	adds	r7, r7, #12
	.cfi_def_cfa_offset 4
	mov	sp, r7
	.cfi_def_cfa_register 13
	@ sp needed
	pop	{r7}
	.cfi_restore 7
	.cfi_def_cfa_offset 0
	bx	lr
	.cfi_endproc
.LFE136:
	.size	Chip_GPIO_SetPinState, .-Chip_GPIO_SetPinState
	.section	.text.Chip_GPIO_SetPinDIROutput,"ax",%progbits
	.align	2
	.thumb
	.thumb_func
	.type	Chip_GPIO_SetPinDIROutput, %function
Chip_GPIO_SetPinDIROutput:
.LFB140:
	.loc 2 145 0
	.cfi_startproc
	@ args = 0, pretend = 0, frame = 8
	@ frame_needed = 1, uses_anonymous_args = 0
	@ link register save eliminated.
	push	{r7}
	.cfi_def_cfa_offset 4
	.cfi_offset 7, -4
	sub	sp, sp, #12
	.cfi_def_cfa_offset 16
	add	r7, sp, #0
	.cfi_def_cfa_register 7
	str	r0, [r7, #4]
	mov	r3, r1
	strb	r3, [r7, #3]
	mov	r3, r2
	strb	r3, [r7, #2]
	.loc 2 146 0
	ldrb	r3, [r7, #3]	@ zero_extendqisi2
	lsls	r3, r3, #5
	ldr	r2, [r7, #4]
	add	r3, r3, r2
	ldrb	r2, [r7, #3]	@ zero_extendqisi2
	lsls	r2, r2, #5
	ldr	r1, [r7, #4]
	add	r2, r2, r1
	ldr	r1, [r2]
	ldrb	r2, [r7, #2]	@ zero_extendqisi2
	movs	r0, #1
	lsl	r2, r0, r2
	orrs	r2, r2, r1
	str	r2, [r3]
	.loc 2 147 0
	nop
	adds	r7, r7, #12
	.cfi_def_cfa_offset 4
	mov	sp, r7
	.cfi_def_cfa_register 13
	@ sp needed
	pop	{r7}
	.cfi_restore 7
	.cfi_def_cfa_offset 0
	bx	lr
	.cfi_endproc
.LFE140:
	.size	Chip_GPIO_SetPinDIROutput, .-Chip_GPIO_SetPinDIROutput
	.section	.text.Chip_GPIO_SetPinDIRInput,"ax",%progbits
	.align	2
	.thumb
	.thumb_func
	.type	Chip_GPIO_SetPinDIRInput, %function
Chip_GPIO_SetPinDIRInput:
.LFB141:
	.loc 2 157 0
	.cfi_startproc
	@ args = 0, pretend = 0, frame = 8
	@ frame_needed = 1, uses_anonymous_args = 0
	@ link register save eliminated.
	push	{r7}
	.cfi_def_cfa_offset 4
	.cfi_offset 7, -4
	sub	sp, sp, #12
	.cfi_def_cfa_offset 16
	add	r7, sp, #0
	.cfi_def_cfa_register 7
	str	r0, [r7, #4]
	mov	r3, r1
	strb	r3, [r7, #3]
	mov	r3, r2
	strb	r3, [r7, #2]
	.loc 2 158 0
	ldrb	r3, [r7, #3]	@ zero_extendqisi2
	lsls	r3, r3, #5
	ldr	r2, [r7, #4]
	add	r3, r3, r2
	ldrb	r2, [r7, #3]	@ zero_extendqisi2
	lsls	r2, r2, #5
	ldr	r1, [r7, #4]
	add	r2, r2, r1
	ldr	r1, [r2]
	ldrb	r2, [r7, #2]	@ zero_extendqisi2
	movs	r0, #1
	lsl	r2, r0, r2
	mvns	r2, r2
	ands	r2, r2, r1
	str	r2, [r3]
	.loc 2 159 0
	nop
	adds	r7, r7, #12
	.cfi_def_cfa_offset 4
	mov	sp, r7
	.cfi_def_cfa_register 13
	@ sp needed
	pop	{r7}
	.cfi_restore 7
	.cfi_def_cfa_offset 0
	bx	lr
	.cfi_endproc
.LFE141:
	.size	Chip_GPIO_SetPinDIRInput, .-Chip_GPIO_SetPinDIRInput
	.section	.text.Chip_GPIO_SetPinDIR,"ax",%progbits
	.align	2
	.thumb
	.thumb_func
	.type	Chip_GPIO_SetPinDIR, %function
Chip_GPIO_SetPinDIR:
.LFB142:
	.loc 2 170 0
	.cfi_startproc
	@ args = 0, pretend = 0, frame = 8
	@ frame_needed = 1, uses_anonymous_args = 0
	push	{r7, lr}
	.cfi_def_cfa_offset 8
	.cfi_offset 7, -8
	.cfi_offset 14, -4
	sub	sp, sp, #8
	.cfi_def_cfa_offset 16
	add	r7, sp, #0
	.cfi_def_cfa_register 7
	str	r0, [r7, #4]
	mov	r0, r1
	mov	r1, r2
	mov	r2, r3
	mov	r3, r0
	strb	r3, [r7, #3]
	mov	r3, r1
	strb	r3, [r7, #2]
	mov	r3, r2
	strb	r3, [r7, #1]
	.loc 2 171 0
	ldrb	r3, [r7, #1]	@ zero_extendqisi2
	cmp	r3, #0
	beq	.L14
	.loc 2 172 0
	ldrb	r2, [r7, #2]	@ zero_extendqisi2
	ldrb	r3, [r7, #3]	@ zero_extendqisi2
	mov	r1, r3
	ldr	r0, [r7, #4]
	bl	Chip_GPIO_SetPinDIROutput
	.loc 2 177 0
	b	.L16
.L14:
	.loc 2 175 0
	ldrb	r2, [r7, #2]	@ zero_extendqisi2
	ldrb	r3, [r7, #3]	@ zero_extendqisi2
	mov	r1, r3
	ldr	r0, [r7, #4]
	bl	Chip_GPIO_SetPinDIRInput
.L16:
	.loc 2 177 0
	nop
	adds	r7, r7, #8
	.cfi_def_cfa_offset 8
	mov	sp, r7
	.cfi_def_cfa_register 13
	@ sp needed
	pop	{r7, pc}
	.cfi_endproc
.LFE142:
	.size	Chip_GPIO_SetPinDIR, .-Chip_GPIO_SetPinDIR
	.section	.text.Chip_GPIO_SetDir,"ax",%progbits
	.align	2
	.thumb
	.thumb_func
	.type	Chip_GPIO_SetDir, %function
Chip_GPIO_SetDir:
.LFB146:
	.loc 2 231 0
	.cfi_startproc
	@ args = 0, pretend = 0, frame = 16
	@ frame_needed = 1, uses_anonymous_args = 0
	push	{r7, lr}
	.cfi_def_cfa_offset 8
	.cfi_offset 7, -8
	.cfi_offset 14, -4
	sub	sp, sp, #16
	.cfi_def_cfa_offset 24
	add	r7, sp, #0
	.cfi_def_cfa_register 7
	str	r0, [r7, #12]
	str	r2, [r7, #4]
	mov	r2, r3
	mov	r3, r1
	strb	r3, [r7, #11]
	mov	r3, r2
	strb	r3, [r7, #10]
	.loc 2 232 0
	ldr	r3, [r7, #4]
	uxtb	r2, r3
	ldrb	r3, [r7, #10]	@ zero_extendqisi2
	cmp	r3, #0
	ite	ne
	movne	r3, #1
	moveq	r3, #0
	uxtb	r3, r3
	ldrb	r1, [r7, #11]	@ zero_extendqisi2
	ldr	r0, [r7, #12]
	bl	Chip_GPIO_SetPinDIR
	.loc 2 233 0
	nop
	adds	r7, r7, #16
	.cfi_def_cfa_offset 8
	mov	sp, r7
	.cfi_def_cfa_register 13
	@ sp needed
	pop	{r7, pc}
	.cfi_endproc
.LFE146:
	.size	Chip_GPIO_SetDir, .-Chip_GPIO_SetDir
	.section	.text.Chip_TIMER_Enable,"ax",%progbits
	.align	2
	.thumb
	.thumb_func
	.type	Chip_TIMER_Enable, %function
Chip_TIMER_Enable:
.LFB244:
	.file 3 "D:\\UTN\\Git\\TD_II\\TD_II\\workspace\\lpc_chip_175x_6x\\inc/timer_17xx_40xx.h"
	.loc 3 160 0
	.cfi_startproc
	@ args = 0, pretend = 0, frame = 8
	@ frame_needed = 1, uses_anonymous_args = 0
	@ link register save eliminated.
	push	{r7}
	.cfi_def_cfa_offset 4
	.cfi_offset 7, -4
	sub	sp, sp, #12
	.cfi_def_cfa_offset 16
	add	r7, sp, #0
	.cfi_def_cfa_register 7
	str	r0, [r7, #4]
	.loc 3 161 0
	ldr	r3, [r7, #4]
	ldr	r3, [r3, #4]
	orr	r2, r3, #1
	ldr	r3, [r7, #4]
	str	r2, [r3, #4]
	.loc 3 162 0
	nop
	adds	r7, r7, #12
	.cfi_def_cfa_offset 4
	mov	sp, r7
	.cfi_def_cfa_register 13
	@ sp needed
	pop	{r7}
	.cfi_restore 7
	.cfi_def_cfa_offset 0
	bx	lr
	.cfi_endproc
.LFE244:
	.size	Chip_TIMER_Enable, .-Chip_TIMER_Enable
	.section	.text.Chip_TIMER_PrescaleSet,"ax",%progbits
	.align	2
	.thumb
	.thumb_func
	.type	Chip_TIMER_PrescaleSet, %function
Chip_TIMER_PrescaleSet:
.LFB248:
	.loc 3 205 0
	.cfi_startproc
	@ args = 0, pretend = 0, frame = 8
	@ frame_needed = 1, uses_anonymous_args = 0
	@ link register save eliminated.
	push	{r7}
	.cfi_def_cfa_offset 4
	.cfi_offset 7, -4
	sub	sp, sp, #12
	.cfi_def_cfa_offset 16
	add	r7, sp, #0
	.cfi_def_cfa_register 7
	str	r0, [r7, #4]
	str	r1, [r7]
	.loc 3 206 0
	ldr	r3, [r7, #4]
	ldr	r2, [r7]
	str	r2, [r3, #12]
	.loc 3 207 0
	nop
	adds	r7, r7, #12
	.cfi_def_cfa_offset 4
	mov	sp, r7
	.cfi_def_cfa_register 13
	@ sp needed
	pop	{r7}
	.cfi_restore 7
	.cfi_def_cfa_offset 0
	bx	lr
	.cfi_endproc
.LFE248:
	.size	Chip_TIMER_PrescaleSet, .-Chip_TIMER_PrescaleSet
	.section	.text.Chip_TIMER_SetMatch,"ax",%progbits
	.align	2
	.thumb
	.thumb_func
	.type	Chip_TIMER_SetMatch, %function
Chip_TIMER_SetMatch:
.LFB249:
	.loc 3 218 0
	.cfi_startproc
	@ args = 0, pretend = 0, frame = 16
	@ frame_needed = 1, uses_anonymous_args = 0
	@ link register save eliminated.
	push	{r7}
	.cfi_def_cfa_offset 4
	.cfi_offset 7, -4
	sub	sp, sp, #20
	.cfi_def_cfa_offset 24
	add	r7, sp, #0
	.cfi_def_cfa_register 7
	str	r0, [r7, #12]
	mov	r3, r1
	str	r2, [r7, #4]
	strb	r3, [r7, #11]
	.loc 3 219 0
	ldrsb	r2, [r7, #11]
	ldr	r3, [r7, #12]
	adds	r2, r2, #6
	ldr	r1, [r7, #4]
	str	r1, [r3, r2, lsl #2]
	.loc 3 220 0
	nop
	adds	r7, r7, #20
	.cfi_def_cfa_offset 4
	mov	sp, r7
	.cfi_def_cfa_register 13
	@ sp needed
	pop	{r7}
	.cfi_restore 7
	.cfi_def_cfa_offset 0
	bx	lr
	.cfi_endproc
.LFE249:
	.size	Chip_TIMER_SetMatch, .-Chip_TIMER_SetMatch
	.section	.text.Chip_TIMER_MatchEnableInt,"ax",%progbits
	.align	2
	.thumb
	.thumb_func
	.type	Chip_TIMER_MatchEnableInt, %function
Chip_TIMER_MatchEnableInt:
.LFB251:
	.loc 3 249 0
	.cfi_startproc
	@ args = 0, pretend = 0, frame = 8
	@ frame_needed = 1, uses_anonymous_args = 0
	@ link register save eliminated.
	push	{r7}
	.cfi_def_cfa_offset 4
	.cfi_offset 7, -4
	sub	sp, sp, #12
	.cfi_def_cfa_offset 16
	add	r7, sp, #0
	.cfi_def_cfa_register 7
	str	r0, [r7, #4]
	mov	r3, r1
	strb	r3, [r7, #3]
	.loc 3 250 0
	ldr	r3, [r7, #4]
	ldr	r1, [r3, #20]
	ldrsb	r2, [r7, #3]
	mov	r3, r2
	lsls	r3, r3, #1
	add	r3, r3, r2
	movs	r2, #1
	lsl	r3, r2, r3
	orr	r2, r1, r3
	ldr	r3, [r7, #4]
	str	r2, [r3, #20]
	.loc 3 251 0
	nop
	adds	r7, r7, #12
	.cfi_def_cfa_offset 4
	mov	sp, r7
	.cfi_def_cfa_register 13
	@ sp needed
	pop	{r7}
	.cfi_restore 7
	.cfi_def_cfa_offset 0
	bx	lr
	.cfi_endproc
.LFE251:
	.size	Chip_TIMER_MatchEnableInt, .-Chip_TIMER_MatchEnableInt
	.section	.text.Chip_TIMER_ResetOnMatchEnable,"ax",%progbits
	.align	2
	.thumb
	.thumb_func
	.type	Chip_TIMER_ResetOnMatchEnable, %function
Chip_TIMER_ResetOnMatchEnable:
.LFB253:
	.loc 3 271 0
	.cfi_startproc
	@ args = 0, pretend = 0, frame = 8
	@ frame_needed = 1, uses_anonymous_args = 0
	@ link register save eliminated.
	push	{r7}
	.cfi_def_cfa_offset 4
	.cfi_offset 7, -4
	sub	sp, sp, #12
	.cfi_def_cfa_offset 16
	add	r7, sp, #0
	.cfi_def_cfa_register 7
	str	r0, [r7, #4]
	mov	r3, r1
	strb	r3, [r7, #3]
	.loc 3 272 0
	ldr	r3, [r7, #4]
	ldr	r1, [r3, #20]
	ldrsb	r2, [r7, #3]
	mov	r3, r2
	lsls	r3, r3, #1
	add	r3, r3, r2
	adds	r3, r3, #1
	movs	r2, #1
	lsl	r3, r2, r3
	orr	r2, r1, r3
	ldr	r3, [r7, #4]
	str	r2, [r3, #20]
	.loc 3 273 0
	nop
	adds	r7, r7, #12
	.cfi_def_cfa_offset 4
	mov	sp, r7
	.cfi_def_cfa_register 13
	@ sp needed
	pop	{r7}
	.cfi_restore 7
	.cfi_def_cfa_offset 0
	bx	lr
	.cfi_endproc
.LFE253:
	.size	Chip_TIMER_ResetOnMatchEnable, .-Chip_TIMER_ResetOnMatchEnable
	.section	.text.Chip_TIMER_ResetOnMatchDisable,"ax",%progbits
	.align	2
	.thumb
	.thumb_func
	.type	Chip_TIMER_ResetOnMatchDisable, %function
Chip_TIMER_ResetOnMatchDisable:
.LFB254:
	.loc 3 282 0
	.cfi_startproc
	@ args = 0, pretend = 0, frame = 8
	@ frame_needed = 1, uses_anonymous_args = 0
	@ link register save eliminated.
	push	{r7}
	.cfi_def_cfa_offset 4
	.cfi_offset 7, -4
	sub	sp, sp, #12
	.cfi_def_cfa_offset 16
	add	r7, sp, #0
	.cfi_def_cfa_register 7
	str	r0, [r7, #4]
	mov	r3, r1
	strb	r3, [r7, #3]
	.loc 3 283 0
	ldr	r3, [r7, #4]
	ldr	r1, [r3, #20]
	ldrsb	r2, [r7, #3]
	mov	r3, r2
	lsls	r3, r3, #1
	add	r3, r3, r2
	adds	r3, r3, #1
	movs	r2, #1
	lsl	r3, r2, r3
	mvns	r3, r3
	and	r2, r1, r3
	ldr	r3, [r7, #4]
	str	r2, [r3, #20]
	.loc 3 284 0
	nop
	adds	r7, r7, #12
	.cfi_def_cfa_offset 4
	mov	sp, r7
	.cfi_def_cfa_register 13
	@ sp needed
	pop	{r7}
	.cfi_restore 7
	.cfi_def_cfa_offset 0
	bx	lr
	.cfi_endproc
.LFE254:
	.size	Chip_TIMER_ResetOnMatchDisable, .-Chip_TIMER_ResetOnMatchDisable
	.section	.text.Chip_TIMER_StopOnMatchDisable,"ax",%progbits
	.align	2
	.thumb
	.thumb_func
	.type	Chip_TIMER_StopOnMatchDisable, %function
Chip_TIMER_StopOnMatchDisable:
.LFB256:
	.loc 3 306 0
	.cfi_startproc
	@ args = 0, pretend = 0, frame = 8
	@ frame_needed = 1, uses_anonymous_args = 0
	@ link register save eliminated.
	push	{r7}
	.cfi_def_cfa_offset 4
	.cfi_offset 7, -4
	sub	sp, sp, #12
	.cfi_def_cfa_offset 16
	add	r7, sp, #0
	.cfi_def_cfa_register 7
	str	r0, [r7, #4]
	mov	r3, r1
	strb	r3, [r7, #3]
	.loc 3 307 0
	ldr	r3, [r7, #4]
	ldr	r1, [r3, #20]
	ldrsb	r2, [r7, #3]
	mov	r3, r2
	lsls	r3, r3, #1
	add	r3, r3, r2
	adds	r3, r3, #2
	movs	r2, #1
	lsl	r3, r2, r3
	mvns	r3, r3
	and	r2, r1, r3
	ldr	r3, [r7, #4]
	str	r2, [r3, #20]
	.loc 3 308 0
	nop
	adds	r7, r7, #12
	.cfi_def_cfa_offset 4
	mov	sp, r7
	.cfi_def_cfa_register 13
	@ sp needed
	pop	{r7}
	.cfi_restore 7
	.cfi_def_cfa_offset 0
	bx	lr
	.cfi_endproc
.LFE256:
	.size	Chip_TIMER_StopOnMatchDisable, .-Chip_TIMER_StopOnMatchDisable
	.section	.text.pin_set,"ax",%progbits
	.align	2
	.thumb
	.thumb_func
	.type	pin_set, %function
pin_set:
.LFB369:
	.file 4 "D:\\UTN\\Git\\TD_II\\TD_II\\workspace\\THD_Meter_RTOS\\BASICS/basics_header_init.h"
	.loc 4 16 0
	.cfi_startproc
	@ args = 0, pretend = 0, frame = 8
	@ frame_needed = 1, uses_anonymous_args = 0
	push	{r7, lr}
	.cfi_def_cfa_offset 8
	.cfi_offset 7, -8
	.cfi_offset 14, -4
	sub	sp, sp, #8
	.cfi_def_cfa_offset 16
	add	r7, sp, #0
	.cfi_def_cfa_register 7
	mov	r3, r0
	strb	r3, [r7, #7]
	mov	r3, r1
	strb	r3, [r7, #6]
	mov	r3, r2
	strb	r3, [r7, #5]
	.loc 4 17 0
	ldrb	r3, [r7, #5]	@ zero_extendqisi2
	ldrb	r2, [r7, #6]	@ zero_extendqisi2
	ldrb	r1, [r7, #7]	@ zero_extendqisi2
	ldr	r0, .L26
	bl	Chip_GPIO_SetPinState
	.loc 4 18 0
	nop
	adds	r7, r7, #8
	.cfi_def_cfa_offset 8
	mov	sp, r7
	.cfi_def_cfa_register 13
	@ sp needed
	pop	{r7, pc}
.L27:
	.align	2
.L26:
	.word	537509888
	.cfi_endproc
.LFE369:
	.size	pin_set, .-pin_set
	.section	.text.pin_gpio_init,"ax",%progbits
	.align	2
	.thumb
	.thumb_func
	.type	pin_gpio_init, %function
pin_gpio_init:
.LFB371:
	.loc 4 26 0
	.cfi_startproc
	@ args = 0, pretend = 0, frame = 8
	@ frame_needed = 1, uses_anonymous_args = 0
	push	{r7, lr}
	.cfi_def_cfa_offset 8
	.cfi_offset 7, -8
	.cfi_offset 14, -4
	sub	sp, sp, #16
	.cfi_def_cfa_offset 24
	add	r7, sp, #8
	.cfi_def_cfa 7, 16
	str	r2, [r7]
	mov	r2, r3
	mov	r3, r0
	strb	r3, [r7, #7]
	mov	r3, r1
	strb	r3, [r7, #6]
	mov	r3, r2
	strb	r3, [r7, #5]
	.loc 4 33 0
	ldrb	r2, [r7, #6]	@ zero_extendqisi2
	ldrb	r1, [r7, #7]	@ zero_extendqisi2
	movs	r3, #0
	str	r3, [sp]
	ldr	r3, [r7]
	ldr	r0, .L31
	bl	Chip_IOCON_PinMux
	.loc 4 34 0
	ldrb	r2, [r7, #6]	@ zero_extendqisi2
	ldrb	r3, [r7, #5]	@ zero_extendqisi2
	ldrb	r1, [r7, #7]	@ zero_extendqisi2
	ldr	r0, .L31+4
	bl	Chip_GPIO_SetDir
	.loc 4 36 0
	ldrb	r3, [r7, #5]	@ zero_extendqisi2
	cmp	r3, #0
	beq	.L30
	.loc 4 37 0
	ldrb	r1, [r7, #6]	@ zero_extendqisi2
	ldrb	r3, [r7, #7]	@ zero_extendqisi2
	movs	r2, #0
	mov	r0, r3
	bl	pin_set
.L30:
	.loc 4 38 0
	nop
	adds	r7, r7, #8
	.cfi_def_cfa_offset 8
	mov	sp, r7
	.cfi_def_cfa_register 13
	@ sp needed
	pop	{r7, pc}
.L32:
	.align	2
.L31:
	.word	1073922048
	.word	537509888
	.cfi_endproc
.LFE371:
	.size	pin_gpio_init, .-pin_gpio_init
	.section	.text.timer_BL_init,"ax",%progbits
	.align	2
	.thumb
	.thumb_func
	.type	timer_BL_init, %function
timer_BL_init:
.LFB377:
	.file 5 "D:\\UTN\\Git\\TD_II\\TD_II\\workspace\\THD_Meter_RTOS\\TIMER/timer_init.h"
	.loc 5 56 0
	.cfi_startproc
	@ args = 0, pretend = 0, frame = 16
	@ frame_needed = 1, uses_anonymous_args = 0
	push	{r7, lr}
	.cfi_def_cfa_offset 8
	.cfi_offset 7, -8
	.cfi_offset 14, -4
	sub	sp, sp, #16
	.cfi_def_cfa_offset 24
	add	r7, sp, #0
	.cfi_def_cfa_register 7
	str	r0, [r7, #4]
	str	r1, [r7]
	.loc 5 57 0
	ldr	r0, .L34
	bl	Chip_TIMER_Init
	.loc 5 58 0
	movs	r0, #2
	bl	Chip_Clock_GetPeripheralClockRate
	mov	r2, r0
	ldr	r3, .L34+4
	umull	r2, r3, r3, r2
	lsrs	r3, r3, #18
	subs	r3, r3, #1
	mov	r1, r3
	ldr	r0, .L34
	bl	Chip_TIMER_PrescaleSet
	.loc 5 60 0
	ldr	r2, .L34+8
	ldr	r3, [r7, #4]
	sdiv	r3, r2, r3
	str	r3, [r7, #12]
	.loc 5 62 0
	movs	r1, #0
	ldr	r0, .L34
	bl	Chip_TIMER_MatchEnableInt
	.loc 5 63 0
	movs	r1, #0
	ldr	r0, .L34
	bl	Chip_TIMER_ResetOnMatchEnable
	.loc 5 64 0
	movs	r1, #0
	ldr	r0, .L34
	bl	Chip_TIMER_StopOnMatchDisable
	.loc 5 65 0
	ldr	r3, [r7, #12]
	mov	r2, r3
	movs	r1, #0
	ldr	r0, .L34
	bl	Chip_TIMER_SetMatch
	.loc 5 68 0
	movs	r1, #1
	ldr	r0, .L34
	bl	Chip_TIMER_MatchEnableInt
	.loc 5 69 0
	movs	r1, #1
	ldr	r0, .L34
	bl	Chip_TIMER_ResetOnMatchDisable
	.loc 5 70 0
	movs	r1, #1
	ldr	r0, .L34
	bl	Chip_TIMER_StopOnMatchDisable
	.loc 5 71 0
	ldr	r3, [r7, #12]
	ldr	r2, [r7]
	mul	r3, r2, r3
	ldr	r2, .L34+12
	smull	r1, r2, r2, r3
	asrs	r2, r2, #5
	asrs	r3, r3, #31
	subs	r3, r2, r3
	mov	r2, r3
	movs	r1, #1
	ldr	r0, .L34
	bl	Chip_TIMER_SetMatch
	.loc 5 73 0
	ldr	r0, .L34
	bl	Chip_TIMER_Reset
	.loc 5 74 0
	ldr	r0, .L34
	bl	Chip_TIMER_Enable
	.loc 5 75 0
	movs	r0, #2
	bl	NVIC_ClearPendingIRQ
	.loc 5 76 0
	movs	r0, #2
	bl	NVIC_DisableIRQ
	.loc 5 77 0
	nop
	adds	r7, r7, #16
	.cfi_def_cfa_offset 8
	mov	sp, r7
	.cfi_def_cfa_register 13
	@ sp needed
	pop	{r7, pc}
.L35:
	.align	2
.L34:
	.word	1073774592
	.word	1125899907
	.word	1000000
	.word	1374389535
	.cfi_endproc
.LFE377:
	.size	timer_BL_init, .-timer_BL_init
	.section	.text.tft_init,"ax",%progbits
	.align	2
	.global	tft_init
	.thumb
	.thumb_func
	.type	tft_init, %function
tft_init:
.LFB380:
	.file 6 "../TFT/tft_Init.c"
	.loc 6 14 0
	.cfi_startproc
	@ args = 0, pretend = 0, frame = 0
	@ frame_needed = 1, uses_anonymous_args = 0
	push	{r7, lr}
	.cfi_def_cfa_offset 8
	.cfi_offset 7, -8
	.cfi_offset 14, -4
	add	r7, sp, #0
	.cfi_def_cfa_register 7
	.loc 6 20 0
	bl	tft_gpio_init_priv
	.loc 6 21 0
	bl	tft_LCD_Init_priv
	.loc 6 23 0
	ldr	r3, .L37
	movs	r2, #0
	strh	r2, [r3]	@ movhi
	ldr	r3, .L37
	ldrh	r2, [r3]
	ldr	r3, .L37+4
	strh	r2, [r3]	@ movhi
	.loc 6 24 0
	ldr	r3, .L37+8
	movs	r2, #240
	strh	r2, [r3]	@ movhi
	.loc 6 25 0
	ldr	r3, .L37+8
	mov	r2, #320
	strh	r2, [r3, #2]	@ movhi
	.loc 6 26 0
	ldr	r3, .L37+8
	movs	r2, #1
	strb	r2, [r3, #4]
	.loc 6 28 0
	movs	r1, #60
	movs	r0, #100
	bl	timer_BL_init
	.loc 6 30 0
	movw	r0, #65535
	bl	tft_Fill
	.loc 6 32 0
	bl	MenuInit
	.loc 6 33 0
	nop
	pop	{r7, pc}
.L38:
	.align	2
.L37:
	.word	tft_y
	.word	tft_x
	.word	tft_Opts
	.cfi_endproc
.LFE380:
	.size	tft_init, .-tft_init
	.section	.rodata
	.align	2
.LC0:
	.ascii	"ECG\000"
	.align	2
.LC1:
	.ascii	"Cargando\000"
	.align	2
.LC2:
	.ascii	"Version 15.0\000"
	.section	.text.MenuInit,"ax",%progbits
	.align	2
	.thumb
	.thumb_func
	.type	MenuInit, %function
MenuInit:
.LFB381:
	.loc 6 39 0
	.cfi_startproc
	@ args = 0, pretend = 0, frame = 0
	@ frame_needed = 1, uses_anonymous_args = 0
	push	{r7, lr}
	.cfi_def_cfa_offset 8
	.cfi_offset 7, -8
	.cfi_offset 14, -4
	sub	sp, sp, #8
	.cfi_def_cfa_offset 16
	add	r7, sp, #8
	.cfi_def_cfa 7, 8
	.loc 6 49 0
	movs	r0, #4
	bl	tft_Rotate
	.loc 6 51 0
	movs	r0, #0
	bl	tft_Fill
	.loc 6 53 0
	movs	r3, #0
	str	r3, [sp, #4]
	mov	r3, #63488
	str	r3, [sp]
	ldr	r3, .L40
	ldr	r2, .L40+4
	movs	r1, #5
	movs	r0, #5
	bl	tft_Puts
	.loc 6 54 0
	movs	r3, #0
	str	r3, [sp, #4]
	mov	r3, #2016
	str	r3, [sp]
	ldr	r3, .L40
	ldr	r2, .L40+8
	movs	r1, #70
	movs	r0, #5
	bl	tft_Puts
	.loc 6 55 0
	movs	r3, #0
	str	r3, [sp, #4]
	movs	r3, #31
	str	r3, [sp]
	ldr	r3, .L40
	ldr	r2, .L40+12
	movs	r1, #130
	movs	r0, #5
	bl	tft_Puts
	.loc 6 56 0
	nop
	mov	sp, r7
	.cfi_def_cfa_register 13
	@ sp needed
	pop	{r7, pc}
.L41:
	.align	2
.L40:
	.word	tft_Font_11x18
	.word	.LC0
	.word	.LC1
	.word	.LC2
	.cfi_endproc
.LFE381:
	.size	MenuInit, .-MenuInit
	.section	.text.tft_gpio_init_priv,"ax",%progbits
	.align	2
	.thumb
	.thumb_func
	.type	tft_gpio_init_priv, %function
tft_gpio_init_priv:
.LFB382:
	.loc 6 59 0
	.cfi_startproc
	@ args = 0, pretend = 0, frame = 0
	@ frame_needed = 1, uses_anonymous_args = 0
	push	{r7, lr}
	.cfi_def_cfa_offset 8
	.cfi_offset 7, -8
	.cfi_offset 14, -4
	add	r7, sp, #0
	.cfi_def_cfa_register 7
	.loc 6 60 0
	movs	r3, #1
	movs	r2, #8
	movs	r1, #7
	movs	r0, #2
	bl	pin_gpio_init
	.loc 6 61 0
	movs	r3, #1
	movs	r2, #8
	movs	r1, #29
	movs	r0, #1
	bl	pin_gpio_init
	.loc 6 62 0
	movs	r3, #1
	movs	r2, #8
	movs	r1, #28
	movs	r0, #4
	bl	pin_gpio_init
	.loc 6 63 0
	movs	r3, #1
	movs	r2, #8
	movs	r1, #23
	movs	r0, #1
	bl	pin_gpio_init
	.loc 6 64 0
	movs	r3, #1
	movs	r2, #8
	movs	r1, #20
	movs	r0, #1
	bl	pin_gpio_init
	.loc 6 65 0
	movs	r3, #1
	movs	r2, #8
	movs	r1, #19
	movs	r0, #0
	bl	pin_gpio_init
	.loc 6 66 0
	movs	r3, #1
	movs	r2, #8
	movs	r1, #26
	movs	r0, #3
	bl	pin_gpio_init
	.loc 6 67 0
	movs	r3, #1
	movs	r2, #8
	movs	r1, #25
	movs	r0, #1
	bl	pin_gpio_init
	.loc 6 68 0
	movs	r3, #1
	movs	r2, #8
	movs	r1, #22
	movs	r0, #1
	bl	pin_gpio_init
	.loc 6 69 0
	movs	r3, #1
	movs	r2, #8
	movs	r1, #19
	movs	r0, #1
	bl	pin_gpio_init
	.loc 6 70 0
	movs	r3, #1
	movs	r2, #8
	movs	r1, #20
	movs	r0, #0
	bl	pin_gpio_init
	.loc 6 71 0
	movs	r3, #1
	movs	r2, #8
	movs	r1, #25
	movs	r0, #3
	bl	pin_gpio_init
	.loc 6 72 0
	movs	r3, #1
	movs	r2, #8
	movs	r1, #6
	movs	r0, #2
	bl	pin_gpio_init
	.loc 6 73 0
	movs	r3, #1
	movs	r2, #8
	movs	r1, #24
	movs	r0, #1
	bl	pin_gpio_init
	.loc 6 74 0
	movs	r3, #1
	movs	r2, #8
	movs	r1, #21
	movs	r0, #1
	bl	pin_gpio_init
	.loc 6 75 0
	movs	r3, #1
	movs	r2, #8
	movs	r1, #18
	movs	r0, #1
	bl	pin_gpio_init
	.loc 6 76 0
	movs	r3, #1
	movs	r2, #8
	movs	r1, #9
	movs	r0, #0
	bl	pin_gpio_init
	.loc 6 77 0
	movs	r3, #1
	movs	r2, #8
	movs	r1, #8
	movs	r0, #0
	bl	pin_gpio_init
	.loc 6 78 0
	movs	r3, #1
	movs	r2, #8
	movs	r1, #7
	movs	r0, #0
	bl	pin_gpio_init
	.loc 6 79 0
	movs	r3, #1
	movs	r2, #8
	movs	r1, #6
	movs	r0, #0
	bl	pin_gpio_init
	.loc 6 80 0
	movs	r3, #1
	movs	r2, #8
	movs	r1, #5
	movs	r0, #2
	bl	pin_gpio_init
	.loc 6 81 0
	movs	r3, #1
	movs	r2, #8
	movs	r1, #4
	movs	r0, #2
	bl	pin_gpio_init
	.loc 6 83 0
	movs	r2, #1
	movs	r1, #9
	movs	r0, #0
	bl	pin_set
	.loc 6 84 0
	movs	r2, #1
	movs	r1, #7
	movs	r0, #0
	bl	pin_set
	.loc 6 85 0
	movs	r2, #1
	movs	r1, #6
	movs	r0, #0
	bl	pin_set
	.loc 6 86 0
	movs	r2, #1
	movs	r1, #5
	movs	r0, #2
	bl	pin_set
	.loc 6 87 0
	nop
	pop	{r7, pc}
	.cfi_endproc
.LFE382:
	.size	tft_gpio_init_priv, .-tft_gpio_init_priv
	.section	.text.tft_LCD_Init_priv,"ax",%progbits
	.align	2
	.thumb
	.thumb_func
	.type	tft_LCD_Init_priv, %function
tft_LCD_Init_priv:
.LFB383:
	.loc 6 90 0
	.cfi_startproc
	@ args = 0, pretend = 0, frame = 0
	@ frame_needed = 1, uses_anonymous_args = 0
	push	{r7, lr}
	.cfi_def_cfa_offset 8
	.cfi_offset 7, -8
	.cfi_offset 14, -4
	add	r7, sp, #0
	.cfi_def_cfa_register 7
	.loc 6 91 0
	movs	r2, #0
	movs	r1, #5
	movs	r0, #2
	bl	pin_set
	.loc 6 92 0
	movs	r2, #1
	movs	r1, #5
	movs	r0, #2
	bl	pin_set
	.loc 6 94 0
	movs	r0, #1
	bl	tft_SendCommand_priv
	.loc 6 95 0
	ldr	r0, .L44
	bl	tft_Delay_priv
	.loc 6 97 0
	movs	r0, #203
	bl	tft_SendCommand_priv
	.loc 6 98 0
	movs	r0, #57
	bl	tft_SendData_priv
	.loc 6 99 0
	movs	r0, #44
	bl	tft_SendData_priv
	.loc 6 100 0
	movs	r0, #0
	bl	tft_SendData_priv
	.loc 6 101 0
	movs	r0, #52
	bl	tft_SendData_priv
	.loc 6 102 0
	movs	r0, #2
	bl	tft_SendData_priv
	.loc 6 103 0
	movs	r0, #207
	bl	tft_SendCommand_priv
	.loc 6 104 0
	movs	r0, #0
	bl	tft_SendData_priv
	.loc 6 105 0
	movs	r0, #193
	bl	tft_SendData_priv
	.loc 6 106 0
	movs	r0, #48
	bl	tft_SendData_priv
	.loc 6 107 0
	movs	r0, #232
	bl	tft_SendCommand_priv
	.loc 6 108 0
	movs	r0, #133
	bl	tft_SendData_priv
	.loc 6 109 0
	movs	r0, #0
	bl	tft_SendData_priv
	.loc 6 110 0
	movs	r0, #120
	bl	tft_SendData_priv
	.loc 6 111 0
	movs	r0, #234
	bl	tft_SendCommand_priv
	.loc 6 112 0
	movs	r0, #0
	bl	tft_SendData_priv
	.loc 6 113 0
	movs	r0, #0
	bl	tft_SendData_priv
	.loc 6 114 0
	movs	r0, #237
	bl	tft_SendCommand_priv
	.loc 6 115 0
	movs	r0, #100
	bl	tft_SendData_priv
	.loc 6 116 0
	movs	r0, #3
	bl	tft_SendData_priv
	.loc 6 117 0
	movs	r0, #18
	bl	tft_SendData_priv
	.loc 6 118 0
	movs	r0, #129
	bl	tft_SendData_priv
	.loc 6 119 0
	movs	r0, #247
	bl	tft_SendCommand_priv
	.loc 6 120 0
	movs	r0, #32
	bl	tft_SendData_priv
	.loc 6 121 0
	movs	r0, #192
	bl	tft_SendCommand_priv
	.loc 6 122 0
	movs	r0, #35
	bl	tft_SendData_priv
	.loc 6 123 0
	movs	r0, #193
	bl	tft_SendCommand_priv
	.loc 6 124 0
	movs	r0, #16
	bl	tft_SendData_priv
	.loc 6 125 0
	movs	r0, #197
	bl	tft_SendCommand_priv
	.loc 6 126 0
	movs	r0, #62
	bl	tft_SendData_priv
	.loc 6 127 0
	movs	r0, #40
	bl	tft_SendData_priv
	.loc 6 128 0
	movs	r0, #199
	bl	tft_SendCommand_priv
	.loc 6 129 0
	movs	r0, #134
	bl	tft_SendData_priv
	.loc 6 130 0
	movs	r0, #54
	bl	tft_SendCommand_priv
	.loc 6 131 0
	movs	r0, #72
	bl	tft_SendData_priv
	.loc 6 132 0
	movs	r0, #58
	bl	tft_SendCommand_priv
	.loc 6 133 0
	movs	r0, #85
	bl	tft_SendData_priv
	.loc 6 134 0
	movs	r0, #177
	bl	tft_SendCommand_priv
	.loc 6 135 0
	movs	r0, #0
	bl	tft_SendData_priv
	.loc 6 136 0
	movs	r0, #24
	bl	tft_SendData_priv
	.loc 6 137 0
	movs	r0, #182
	bl	tft_SendCommand_priv
	.loc 6 138 0
	movs	r0, #8
	bl	tft_SendData_priv
	.loc 6 139 0
	movs	r0, #130
	bl	tft_SendData_priv
	.loc 6 140 0
	movs	r0, #39
	bl	tft_SendData_priv
	.loc 6 141 0
	movs	r0, #242
	bl	tft_SendCommand_priv
	.loc 6 142 0
	movs	r0, #0
	bl	tft_SendData_priv
	.loc 6 143 0
	movs	r0, #42
	bl	tft_SendCommand_priv
	.loc 6 144 0
	movs	r0, #0
	bl	tft_SendData_priv
	.loc 6 145 0
	movs	r0, #0
	bl	tft_SendData_priv
	.loc 6 146 0
	movs	r0, #0
	bl	tft_SendData_priv
	.loc 6 147 0
	movs	r0, #239
	bl	tft_SendData_priv
	.loc 6 148 0
	movs	r0, #43
	bl	tft_SendCommand_priv
	.loc 6 149 0
	movs	r0, #0
	bl	tft_SendData_priv
	.loc 6 150 0
	movs	r0, #0
	bl	tft_SendData_priv
	.loc 6 151 0
	movs	r0, #1
	bl	tft_SendData_priv
	.loc 6 152 0
	movs	r0, #63
	bl	tft_SendData_priv
	.loc 6 153 0
	movs	r0, #38
	bl	tft_SendCommand_priv
	.loc 6 154 0
	movs	r0, #1
	bl	tft_SendData_priv
	.loc 6 155 0
	movs	r0, #224
	bl	tft_SendCommand_priv
	.loc 6 156 0
	movs	r0, #15
	bl	tft_SendData_priv
	.loc 6 157 0
	movs	r0, #49
	bl	tft_SendData_priv
	.loc 6 158 0
	movs	r0, #43
	bl	tft_SendData_priv
	.loc 6 159 0
	movs	r0, #12
	bl	tft_SendData_priv
	.loc 6 160 0
	movs	r0, #14
	bl	tft_SendData_priv
	.loc 6 161 0
	movs	r0, #8
	bl	tft_SendData_priv
	.loc 6 162 0
	movs	r0, #78
	bl	tft_SendData_priv
	.loc 6 163 0
	movs	r0, #241
	bl	tft_SendData_priv
	.loc 6 164 0
	movs	r0, #55
	bl	tft_SendData_priv
	.loc 6 165 0
	movs	r0, #7
	bl	tft_SendData_priv
	.loc 6 166 0
	movs	r0, #16
	bl	tft_SendData_priv
	.loc 6 167 0
	movs	r0, #3
	bl	tft_SendData_priv
	.loc 6 168 0
	movs	r0, #14
	bl	tft_SendData_priv
	.loc 6 169 0
	movs	r0, #9
	bl	tft_SendData_priv
	.loc 6 170 0
	movs	r0, #0
	bl	tft_SendData_priv
	.loc 6 171 0
	movs	r0, #225
	bl	tft_SendCommand_priv
	.loc 6 172 0
	movs	r0, #0
	bl	tft_SendData_priv
	.loc 6 173 0
	movs	r0, #14
	bl	tft_SendData_priv
	.loc 6 174 0
	movs	r0, #20
	bl	tft_SendData_priv
	.loc 6 175 0
	movs	r0, #3
	bl	tft_SendData_priv
	.loc 6 176 0
	movs	r0, #17
	bl	tft_SendData_priv
	.loc 6 177 0
	movs	r0, #7
	bl	tft_SendData_priv
	.loc 6 178 0
	movs	r0, #49
	bl	tft_SendData_priv
	.loc 6 179 0
	movs	r0, #193
	bl	tft_SendData_priv
	.loc 6 180 0
	movs	r0, #72
	bl	tft_SendData_priv
	.loc 6 181 0
	movs	r0, #8
	bl	tft_SendData_priv
	.loc 6 182 0
	movs	r0, #15
	bl	tft_SendData_priv
	.loc 6 183 0
	movs	r0, #12
	bl	tft_SendData_priv
	.loc 6 184 0
	movs	r0, #49
	bl	tft_SendData_priv
	.loc 6 185 0
	movs	r0, #54
	bl	tft_SendData_priv
	.loc 6 186 0
	movs	r0, #15
	bl	tft_SendData_priv
	.loc 6 187 0
	movs	r0, #83
	bl	tft_SendCommand_priv
	.loc 6 188 0
	movs	r0, #44
	bl	tft_SendData_priv
	.loc 6 189 0
	movs	r0, #192
	bl	tft_SendCommand_priv
	.loc 6 190 0
	movs	r0, #9
	bl	tft_SendData_priv
	.loc 6 191 0
	movs	r0, #17
	bl	tft_SendCommand_priv
	.loc 6 193 0
	ldr	r0, .L44+4
	bl	tft_Delay_priv
	.loc 6 195 0
	movs	r0, #41
	bl	tft_SendCommand_priv
	.loc 6 196 0
	movs	r0, #44
	bl	tft_SendCommand_priv
	.loc 6 197 0
	nop
	pop	{r7, pc}
.L45:
	.align	2
.L44:
	.word	2000000
	.word	1000000
	.cfi_endproc
.LFE383:
	.size	tft_LCD_Init_priv, .-tft_LCD_Init_priv
	.text
.Letext0:
	.file 7 "c:\\nxp\\lpcxpresso_8.2.2_650\\lpcxpresso\\tools\\redlib\\include\\stdint.h"
	.file 8 "D:\\UTN\\Git\\TD_II\\TD_II\\workspace\\lpc_chip_175x_6x\\inc/cmsis_175x_6x.h"
	.file 9 "D:\\UTN\\Git\\TD_II\\TD_II\\workspace\\lpc_chip_175x_6x\\inc/cmsis.h"
	.file 10 "D:\\UTN\\Git\\TD_II\\TD_II\\workspace\\lpc_chip_175x_6x\\inc/clock_17xx_40xx.h"
	.file 11 "D:\\UTN\\Git\\TD_II\\TD_II\\workspace\\lpc_chip_175x_6x\\inc/iocon_17xx_40xx.h"
	.file 12 "D:\\UTN\\Git\\TD_II\\TD_II\\workspace\\CMSIS_DSPLIB_CM3\\inc/arm/arm_math.h"
	.file 13 "D:\\UTN\\Git\\TD_II\\TD_II\\workspace\\THD_Meter_RTOS\\TFT/tft_header.h"
	.file 14 "D:\\UTN\\Git\\TD_II\\TD_II\\workspace\\lpc_chip_175x_6x\\inc/chip.h"
	.file 15 "D:\\UTN\\Git\\TD_II\\TD_II\\workspace\\THD_Meter_RTOS\\FFT/fft_header.h"